; Function Attrs: mustprogress uwtable
define void @_ZN7rocksdb13SstFileDumper14VerifyChecksumEv(ptr dead_on_unwind noalias writable sret(%"class.rocksdb::Status") align 8 %0, ptr noundef nonnull align 8 dereferenceable(3336) %1) local_unnamed_addr #7 align 2 {
  %3 = getelementptr inbounds nuw i8, ptr %1, i64 1664
  %4 = load ptr, ptr %3, align 8, !tbaa !216
  %5 = getelementptr inbounds nuw i8, ptr %1, i64 3144
  %6 = load ptr, ptr %4, align 8, !tbaa !19
  %7 = getelementptr inbounds nuw i8, ptr %6, i64 136
  %8 = load ptr, ptr %7, align 8
  tail call void %8(ptr dead_on_unwind writable sret(%"class.rocksdb::Status") align 8 %0, ptr noundef nonnull align 8 dereferenceable(8) %4, ptr noundef nonnull align 8 dereferenceable(168) %5, i8 noundef signext 6)
  ret void
}